target datalayout = "e-m:e-p270:32:32-p271:32:32-p272:64:64-i64:64-i128:128-f80:128-n8:16:32:64-S128"
target triple = "x86_64-pc-linux-gnu"

%struct.H5HF_hdr_t = type { %struct.H5C_cache_entry_t, i32, i32, i8, i8, i8, i8, %struct.H5HF_dtable_t, i64, i64, i32, i64, i64, %struct.H5O_pline_t, i64, i32, i64, i64, i64, i64, i64, i64, i64, i64, i64, i64, i64, i32, ptr, i64, i8, i8, i8, ptr, i32, ptr, %struct.H5HF_block_iter_t, ptr, i64, i8, i8, i64, i8, i8, i8, i8 }
%struct.H5C_cache_entry_t = type { ptr, i64, i64, ptr, i8, ptr, i8, i8, i8, i8, i32, i8, i8, i8, i8, i8, i32, ptr, i32, i32, i32, i32, i32, i8, i8, ptr, ptr, ptr, ptr, ptr, ptr, i8, i32, i8, i64, ptr, i64, i64, i32, i8, i32, i32, i8, ptr, ptr, ptr }
%struct.H5HF_dtable_t = type { %struct.H5HF_dtable_cparam_t, i64, i32, i32, i32, i32, i32, i32, i32, i64, ptr, ptr, ptr, ptr }
%struct.H5HF_dtable_cparam_t = type { i32, i64, i64, i32, i32 }
%struct.H5O_pline_t = type { %struct.H5O_shared_t, i32, i64, i64, ptr }
%struct.H5O_shared_t = type { i32, ptr, i32, %union.anon }
%union.anon = type { %struct.H5O_mesg_loc_t }
%struct.H5O_mesg_loc_t = type { i32, i64 }
%struct.H5HF_block_iter_t = type { i8, ptr }

@H5HF_init_g = external global i8, align 1
@H5_libterm_g = external global i8, align 1
@.str.4 = private unnamed_addr constant [103 x i8] c"generated/home/dtcxzyw/WorkSpace/Projects/compilers/llvm-opt-benchmark/bench/hdf5/hdf5/src/H5HFcache.c\00", align 1
@H5E_HEAP_g = external global i64, align 8
@H5E_BADVALUE_g = external global i64, align 8
@__func__.H5HF__cache_hdr_pre_serialize = private unnamed_addr constant [30 x i8] c"H5HF__cache_hdr_pre_serialize\00", align 1
@.str.16 = private unnamed_addr constant [28 x i8] c"addr in temporary space?!?.\00", align 1
@.str.17 = private unnamed_addr constant [22 x i8] c"unexpected image len.\00", align 1

; Function Attrs: nounwind uwtable
define internal i32 @H5HF__cache_hdr_pre_serialize(ptr noundef %0, ptr noundef %1, i64 noundef %2, i64 noundef %3, ptr noundef %4, ptr noundef %5, ptr noundef %6) #0 {
  %8 = alloca ptr, align 8
  %9 = alloca ptr, align 8
  %10 = alloca i64, align 8
  %11 = alloca i64, align 8
  %12 = alloca ptr, align 8
  %13 = alloca ptr, align 8
  %14 = alloca ptr, align 8
  %15 = alloca ptr, align 8
  %16 = alloca i32, align 4
  %17 = alloca i8, align 1
  store ptr %0, ptr %8, align 8, !tbaa !80
  store ptr %1, ptr %9, align 8, !tbaa !3
  store i64 %2, ptr %10, align 8, !tbaa !40
  store i64 %3, ptr %11, align 8, !tbaa !40
  store ptr %4, ptr %12, align 8, !tbaa !7
  store ptr %5, ptr %13, align 8, !tbaa !7
  store ptr %6, ptr %14, align 8, !tbaa !81
  call void @llvm.lifetime.start.p0(i64 8, ptr %15) #8
  %18 = load ptr, ptr %9, align 8, !tbaa !3
  store ptr %18, ptr %15, align 8, !tbaa !47
  call void @llvm.lifetime.start.p0(i64 4, ptr %16) #8
  store i32 0, ptr %16, align 4, !tbaa !43
  call void @llvm.lifetime.start.p0(i64 1, ptr %17) #8
  store i8 0, ptr %17, align 1, !tbaa !11
  %19 = load i8, ptr @H5HF_init_g, align 1, !tbaa !11, !range !13, !noundef !14
  %20 = trunc i8 %19 to i1
  br i1 %20, label %25, label %21

21:                                               ; preds = %7
  %22 = load i8, ptr @H5_libterm_g, align 1, !tbaa !11, !range !13, !noundef !14
  %23 = trunc i8 %22 to i1
  %24 = xor i1 %23, true
  br label %25

25:                                               ; preds = %21, %7
  %26 = phi i1 [ true, %7 ], [ %24, %21 ]
  %27 = xor i1 %26, true
  %28 = xor i1 %27, true
  %29 = zext i1 %28 to i32
  %30 = sext i32 %29 to i64
  %31 = call i64 @llvm.expect.i64(i64 %30, i64 1)
  %32 = icmp ne i64 %31, 0
  br i1 %32, label %33, label %84

33:                                               ; preds = %25
  %34 = load ptr, ptr %8, align 8, !tbaa !80
  %35 = load i64, ptr %10, align 8, !tbaa !40
  %36 = call zeroext i1 @H5F_is_tmp_addr(ptr noundef %34, i64 noundef %35)
  br i1 %36, label %37, label %56

37:                                               ; preds = %33
  br label %38

38:                                               ; preds = %37
  br label %39

39:                                               ; preds = %38
  br label %40

40:                                               ; preds = %39
  %41 = load i64, ptr @H5E_HEAP_g, align 8, !tbaa !40
  %42 = load i64, ptr @H5E_BADVALUE_g, align 8, !tbaa !40
  %43 = call i32 (ptr, ptr, i32, i64, i64, ptr, ...) @H5E_printf_stack(ptr noundef @.str.4, ptr noundef @__func__.H5HF__cache_hdr_pre_serialize, i32 noundef 669, i64 noundef %41, i64 noundef %42, ptr noundef @.str.16)
  br label %44

44:                                               ; preds = %40
  br label %45

45:                                               ; preds = %44
  store i8 1, ptr %17, align 1, !tbaa !11
  %46 = load i8, ptr %17, align 1, !tbaa !11, !range !13, !noundef !14
  %47 = trunc i8 %46 to i1
  %48 = zext i1 %47 to i8
  store i8 %48, ptr %17, align 1, !tbaa !11
  br label %49

49:                                               ; preds = %45
  br label %50

50:                                               ; preds = %49
  br label %51

51:                                               ; preds = %50
  store i32 -1, ptr %16, align 4, !tbaa !43
  br label %83

52:                                               ; No predecessors!
  br label %53

53:                                               ; preds = %52
  br label %54

54:                                               ; preds = %53
  br label %55

55:                                               ; preds = %54
  br label %56

56:                                               ; preds = %55, %33
  %57 = load i64, ptr %11, align 8, !tbaa !40
  %58 = load ptr, ptr %15, align 8, !tbaa !47
  %59 = getelementptr inbounds nuw %struct.H5HF_hdr_t, ptr %58, i32 0, i32 26
  %60 = load i64, ptr %59, align 8, !tbaa !74
  %61 = icmp ne i64 %57, %60
  br i1 %61, label %62, label %81

62:                                               ; preds = %56
  br label %63

63:                                               ; preds = %62
  br label %64

64:                                               ; preds = %63
  br label %65

65:                                               ; preds = %64
  %66 = load i64, ptr @H5E_HEAP_g, align 8, !tbaa !40
  %67 = load i64, ptr @H5E_BADVALUE_g, align 8, !tbaa !40
  %68 = call i32 (ptr, ptr, i32, i64, i64, ptr, ...) @H5E_printf_stack(ptr noundef @.str.4, ptr noundef @__func__.H5HF__cache_hdr_pre_serialize, i32 noundef 672, i64 noundef %66, i64 noundef %67, ptr noundef @.str.17)
  br label %69

69:                                               ; preds = %65
  br label %70

70:                                               ; preds = %69
  store i8 1, ptr %17, align 1, !tbaa !11
  %71 = load i8, ptr %17, align 1, !tbaa !11, !range !13, !noundef !14
  %72 = trunc i8 %71 to i1
  %73 = zext i1 %72 to i8
  store i8 %73, ptr %17, align 1, !tbaa !11
  br label %74

74:                                               ; preds = %70
  br label %75

75:                                               ; preds = %74
  br label %76

76:                                               ; preds = %75
  store i32 -1, ptr %16, align 4, !tbaa !43
  br label %83

77:                                               ; No predecessors!
  br label %78

78:                                               ; preds = %77
  br label %79

79:                                               ; preds = %78
  br label %80

80:                                               ; preds = %79
  br label %81

81:                                               ; preds = %80, %56
  %82 = load ptr, ptr %14, align 8, !tbaa !81
  store i32 0, ptr %82, align 4, !tbaa !43
  br label %83

83:                                               ; preds = %81, %76, %51
  br label %84

84:                                               ; preds = %83, %25
  %85 = load i32, ptr %16, align 4, !tbaa !43
  call void @llvm.lifetime.end.p0(i64 1, ptr %17) #8
  call void @llvm.lifetime.end.p0(i64 4, ptr %16) #8
  call void @llvm.lifetime.end.p0(i64 8, ptr %15) #8
  ret i32 %85
}