; Function Attrs: nounwind uwtable
define internal range(i32 -1, 1) i32 @H5HF__cache_hdr_pre_serialize(ptr noundef %0, ptr noundef readonly captures(none) %1, i64 noundef %2, i64 noundef %3, ptr readnone captures(none) %4, ptr readnone captures(none) %5, ptr noundef writeonly captures(none) %6) #0 {
  %8 = load i8, ptr @H5HF_init_g, align 1, !tbaa !3, !range !7, !noundef !8
  %9 = trunc nuw i8 %8 to i1
  %10 = load i8, ptr @H5_libterm_g, align 1, !range !7
  %11 = trunc nuw i8 %10 to i1
  %12 = xor i1 %11, true
  %13 = select i1 %9, i1 true, i1 %12
  br i1 %13, label %14, label %28, !prof !9

14:                                               ; preds = %7
  %15 = tail call zeroext i1 @H5F_is_tmp_addr(ptr noundef %0, i64 noundef %2) #9
  br i1 %15, label %16, label %20

16:                                               ; preds = %14
  %17 = load i64, ptr @H5E_HEAP_g, align 8, !tbaa !14
  %18 = load i64, ptr @H5E_BADVALUE_g, align 8, !tbaa !14
  %19 = tail call i32 (ptr, ptr, i32, i64, i64, ptr, ...) @H5E_printf_stack(ptr noundef nonnull @.str.4, ptr noundef nonnull @__func__.H5HF__cache_hdr_pre_serialize, i32 noundef 669, i64 noundef %17, i64 noundef %18, ptr noundef nonnull @.str.16) #9
  br label %28

20:                                               ; preds = %14
  %21 = getelementptr inbounds nuw i8, ptr %1, i64 584
  %22 = load i64, ptr %21, align 8, !tbaa !74
  %.not = icmp eq i64 %3, %22
  br i1 %.not, label %27, label %23

23:                                               ; preds = %20
  %24 = load i64, ptr @H5E_HEAP_g, align 8, !tbaa !14
  %25 = load i64, ptr @H5E_BADVALUE_g, align 8, !tbaa !14
  %26 = tail call i32 (ptr, ptr, i32, i64, i64, ptr, ...) @H5E_printf_stack(ptr noundef nonnull @.str.4, ptr noundef nonnull @__func__.H5HF__cache_hdr_pre_serialize, i32 noundef 672, i64 noundef %24, i64 noundef %25, ptr noundef nonnull @.str.17) #9
  br label %28

27:                                               ; preds = %20
  store i32 0, ptr %6, align 4, !tbaa !17
  br label %28

28:                                               ; preds = %16, %23, %27, %7
  %.0 = phi i32 [ -1, %16 ], [ -1, %23 ], [ 0, %27 ], [ 0, %7 ]
  ret i32 %.0
}